; ModuleID = '55/1112.c'
source_filename = "55/1112.c"
target datalayout = "e-m:e-p270:32:32-p271:32:32-p272:64:64-i64:64-f80:128-n8:16:32:64-S128"
target triple = "x86_64-pc-linux-gnu"

@.str = private unnamed_addr constant [9 x i8] c"%d %s %d\00", align 1
@.str.1 = private unnamed_addr constant [2 x i8] c"0\00", align 1
@.str.2 = private unnamed_addr constant [3 x i8] c"%s\00", align 1

; Function Attrs: noinline nounwind uwtable
define dso_local i32 @main() #0 {
  %1 = alloca i32, align 4
  %2 = alloca i32, align 4
  %3 = alloca i32, align 4
  %4 = alloca [40 x i8], align 16
  %5 = alloca i32, align 4
  %6 = alloca [40 x i32], align 16
  %7 = alloca i32, align 4
  %8 = alloca i32, align 4
  %9 = alloca i32, align 4
  %10 = alloca [40 x i32], align 16
  %11 = alloca i32, align 4
  %12 = alloca [40 x i8], align 16
  %13 = alloca i32, align 4
  store i32 0, i32* %1, align 4
  %14 = getelementptr inbounds [40 x i8], [40 x i8]* %4, i64 0, i64 0
  %15 = call i32 (i8*, ...) @__isoc99_scanf(i8* getelementptr inbounds ([9 x i8], [9 x i8]* @.str, i64 0, i64 0), i32* %2, i8* %14, i32* %3)
  %16 = getelementptr inbounds [40 x i8], [40 x i8]* %4, i64 0, i64 0
  %17 = call i64 @strlen(i8* %16) #3
  %18 = trunc i64 %17 to i32
  store i32 %18, i32* %5, align 4
  store i32 0, i32* %7, align 4
  store i32 0, i32* %8, align 4
  br label %19

19:                                               ; preds = %94, %0
  %20 = load i32, i32* %8, align 4
  %21 = load i32, i32* %5, align 4
  %22 = icmp slt i32 %20, %21
  br i1 %22, label %23, label %97

23:                                               ; preds = %19
  %24 = load i32, i32* %8, align 4
  %25 = sext i32 %24 to i64
  %26 = getelementptr inbounds [40 x i8], [40 x i8]* %4, i64 0, i64 %25
  %27 = load i8, i8* %26, align 1
  %28 = sext i8 %27 to i32
  %29 = icmp sge i32 %28, 65
  br i1 %29, label %30, label %49

30:                                               ; preds = %23
  %31 = load i32, i32* %8, align 4
  %32 = sext i32 %31 to i64
  %33 = getelementptr inbounds [40 x i8], [40 x i8]* %4, i64 0, i64 %32
  %34 = load i8, i8* %33, align 1
  %35 = sext i8 %34 to i32
  %36 = icmp sle i32 %35, 90
  br i1 %36, label %37, label %49

37:                                               ; preds = %30
  %38 = load i32, i32* %8, align 4
  %39 = sext i32 %38 to i64
  %40 = getelementptr inbounds [40 x i8], [40 x i8]* %4, i64 0, i64 %39
  %41 = load i8, i8* %40, align 1
  %42 = sext i8 %41 to i32
  %43 = sub nsw i32 %42, 65
  %44 = add nsw i32 %43, 97
  %45 = trunc i32 %44 to i8
  %46 = load i32, i32* %8, align 4
  %47 = sext i32 %46 to i64
  %48 = getelementptr inbounds [40 x i8], [40 x i8]* %4, i64 0, i64 %47
  store i8 %45, i8* %48, align 1
  br label %49

49:                                               ; preds = %37, %30, %23
  %50 = load i32, i32* %8, align 4
  %51 = sext i32 %50 to i64
  %52 = getelementptr inbounds [40 x i8], [40 x i8]* %4, i64 0, i64 %51
  %53 = load i8, i8* %52, align 1
  %54 = sext i8 %53 to i32
  %55 = icmp sle i32 %54, 122
  br i1 %55, label %56, label %74

56:                                               ; preds = %49
  %57 = load i32, i32* %8, align 4
  %58 = sext i32 %57 to i64
  %59 = getelementptr inbounds [40 x i8], [40 x i8]* %4, i64 0, i64 %58
  %60 = load i8, i8* %59, align 1
  %61 = sext i8 %60 to i32
  %62 = icmp sge i32 %61, 97
  br i1 %62, label %63, label %74

63:                                               ; preds = %56
  %64 = load i32, i32* %8, align 4
  %65 = sext i32 %64 to i64
  %66 = getelementptr inbounds [40 x i8], [40 x i8]* %4, i64 0, i64 %65
  %67 = load i8, i8* %66, align 1
  %68 = sext i8 %67 to i32
  %69 = sub nsw i32 %68, 97
  %70 = add nsw i32 %69, 10
  %71 = load i32, i32* %8, align 4
  %72 = sext i32 %71 to i64
  %73 = getelementptr inbounds [40 x i32], [40 x i32]* %6, i64 0, i64 %72
  store i32 %70, i32* %73, align 4
  br label %84

74:                                               ; preds = %56, %49
  %75 = load i32, i32* %8, align 4
  %76 = sext i32 %75 to i64
  %77 = getelementptr inbounds [40 x i8], [40 x i8]* %4, i64 0, i64 %76
  %78 = load i8, i8* %77, align 1
  %79 = sext i8 %78 to i32
  %80 = sub nsw i32 %79, 48
  %81 = load i32, i32* %8, align 4
  %82 = sext i32 %81 to i64
  %83 = getelementptr inbounds [40 x i32], [40 x i32]* %6, i64 0, i64 %82
  store i32 %80, i32* %83, align 4
  br label %84

84:                                               ; preds = %74, %63
  %85 = load i32, i32* %8, align 4
  %86 = sext i32 %85 to i64
  %87 = getelementptr inbounds [40 x i32], [40 x i32]* %6, i64 0, i64 %86
  %88 = load i32, i32* %87, align 4
  store i32 %88, i32* %9, align 4
  %89 = load i32, i32* %7, align 4
  %90 = load i32, i32* %2, align 4
  %91 = mul nsw i32 %89, %90
  %92 = load i32, i32* %9, align 4
  %93 = add nsw i32 %91, %92
  store i32 %93, i32* %7, align 4
  br label %94

94:                                               ; preds = %84
  %95 = load i32, i32* %8, align 4
  %96 = add nsw i32 %95, 1
  store i32 %96, i32* %8, align 4
  br label %19

97:                                               ; preds = %19
  %98 = load i32, i32* %7, align 4
  %99 = icmp eq i32 %98, 0
  br i1 %99, label %100, label %102

100:                                              ; preds = %97
  %101 = call i32 (i8*, ...) @printf(i8* getelementptr inbounds ([2 x i8], [2 x i8]* @.str.1, i64 0, i64 0))
  br label %176

102:                                              ; preds = %97
  store i32 0, i32* %11, align 4
  br label %103

103:                                              ; preds = %116, %102
  %104 = load i32, i32* %7, align 4
  %105 = icmp ne i32 %104, 0
  br i1 %105, label %106, label %119

106:                                              ; preds = %103
  %107 = load i32, i32* %7, align 4
  %108 = load i32, i32* %3, align 4
  %109 = srem i32 %107, %108
  %110 = load i32, i32* %11, align 4
  %111 = sext i32 %110 to i64
  %112 = getelementptr inbounds [40 x i32], [40 x i32]* %10, i64 0, i64 %111
  store i32 %109, i32* %112, align 4
  %113 = load i32, i32* %7, align 4
  %114 = load i32, i32* %3, align 4
  %115 = sdiv i32 %113, %114
  store i32 %115, i32* %7, align 4
  br label %116

116:                                              ; preds = %106
  %117 = load i32, i32* %11, align 4
  %118 = add nsw i32 %117, 1
  store i32 %118, i32* %11, align 4
  br label %103

119:                                              ; preds = %103
  %120 = load i32, i32* %11, align 4
  %121 = sext i32 %120 to i64
  %122 = getelementptr inbounds [40 x i32], [40 x i32]* %10, i64 0, i64 %121
  store i32 0, i32* %122, align 4
  store i32 0, i32* %13, align 4
  br label %123

123:                                              ; preds = %167, %119
  %124 = load i32, i32* %13, align 4
  %125 = load i32, i32* %11, align 4
  %126 = icmp slt i32 %124, %125
  br i1 %126, label %127, label %170

127:                                              ; preds = %123
  %128 = load i32, i32* %13, align 4
  %129 = sext i32 %128 to i64
  %130 = getelementptr inbounds [40 x i32], [40 x i32]* %10, i64 0, i64 %129
  %131 = load i32, i32* %130, align 4
  %132 = icmp sge i32 %131, 0
  br i1 %132, label %133, label %152

133:                                              ; preds = %127
  %134 = load i32, i32* %13, align 4
  %135 = sext i32 %134 to i64
  %136 = getelementptr inbounds [40 x i32], [40 x i32]* %10, i64 0, i64 %135
  %137 = load i32, i32* %136, align 4
  %138 = icmp slt i32 %137, 10
  br i1 %138, label %139, label %152

139:                                              ; preds = %133
  %140 = load i32, i32* %13, align 4
  %141 = sext i32 %140 to i64
  %142 = getelementptr inbounds [40 x i32], [40 x i32]* %10, i64 0, i64 %141
  %143 = load i32, i32* %142, align 4
  %144 = add nsw i32 %143, 48
  %145 = trunc i32 %144 to i8
  %146 = load i32, i32* %11, align 4
  %147 = load i32, i32* %13, align 4
  %148 = sub nsw i32 %146, %147
  %149 = sub nsw i32 %148, 1
  %150 = sext i32 %149 to i64
  %151 = getelementptr inbounds [40 x i8], [40 x i8]* %12, i64 0, i64 %150
  store i8 %145, i8* %151, align 1
  br label %166

152:                                              ; preds = %133, %127
  %153 = load i32, i32* %13, align 4
  %154 = sext i32 %153 to i64
  %155 = getelementptr inbounds [40 x i32], [40 x i32]* %10, i64 0, i64 %154
  %156 = load i32, i32* %155, align 4
  %157 = sub nsw i32 %156, 10
  %158 = add nsw i32 %157, 65
  %159 = trunc i32 %158 to i8
  %160 = load i32, i32* %11, align 4
  %161 = load i32, i32* %13, align 4
  %162 = sub nsw i32 %160, %161
  %163 = sub nsw i32 %162, 1
  %164 = sext i32 %163 to i64
  %165 = getelementptr inbounds [40 x i8], [40 x i8]* %12, i64 0, i64 %164
  store i8 %159, i8* %165, align 1
  br label %166

166:                                              ; preds = %152, %139
  br label %167

167:                                              ; preds = %166
  %168 = load i32, i32* %13, align 4
  %169 = add nsw i32 %168, 1
  store i32 %169, i32* %13, align 4
  br label %123

170:                                              ; preds = %123
  %171 = load i32, i32* %11, align 4
  %172 = sext i32 %171 to i64
  %173 = getelementptr inbounds [40 x i8], [40 x i8]* %12, i64 0, i64 %172
  store i8 0, i8* %173, align 1
  %174 = getelementptr inbounds [40 x i8], [40 x i8]* %12, i64 0, i64 0
  %175 = call i32 (i8*, ...) @printf(i8* getelementptr inbounds ([3 x i8], [3 x i8]* @.str.2, i64 0, i64 0), i8* %174)
  br label %176

176:                                              ; preds = %170, %100
  %177 = call i32 @getchar()
  %178 = call i32 @getchar()
  %179 = load i32, i32* %1, align 4
  ret i32 %179
}

declare dso_local i32 @__isoc99_scanf(i8*, ...) #1

; Function Attrs: nounwind readonly
declare dso_local i64 @strlen(i8*) #2

declare dso_local i32 @printf(i8*, ...) #1

declare dso_local i32 @getchar() #1


!llvm.module.flags = !{!0}
!llvm.ident = !{!1}

!0 = !{i32 1, !"wchar_size", i32 4}
!1 = !{!"clang version 10.0.0-4ubuntu1 "}
